target datalayout = "e-m:e-p270:32:32-p271:32:32-p272:64:64-i64:64-i128:128-f80:128-n8:16:32:64-S128"
target triple = "x86_64-pc-linux-gnu"

%struct.BitmapAndState = type { %struct.PlanState, ptr, i32 }
%struct.PlanState = type { i32, ptr, ptr, ptr, ptr, ptr, ptr, ptr, ptr, ptr, ptr, ptr, ptr, ptr, ptr, ptr, ptr, ptr, i8, ptr, ptr, ptr, ptr, ptr, i8, i8, i8, i8, i8, i8, i8, i8 }

; Function Attrs: nounwind uwtable
define dso_local void @ExecReScanBitmapAnd(ptr noundef %0) #0 {
  %2 = alloca ptr, align 8
  %3 = alloca i32, align 4
  %4 = alloca ptr, align 8
  store ptr %0, ptr %2, align 8
  call void @llvm.lifetime.start.p0(i64 4, ptr %3) #6
  store i32 0, ptr %3, align 4
  br label %5

5:                                                ; preds = %38, %1
  %6 = load i32, ptr %3, align 4
  %7 = load ptr, ptr %2, align 8
  %8 = getelementptr inbounds nuw %struct.BitmapAndState, ptr %7, i32 0, i32 2
  %9 = load i32, ptr %8, align 8
  %10 = icmp slt i32 %6, %9
  br i1 %10, label %11, label %41

11:                                               ; preds = %5
  call void @llvm.lifetime.start.p0(i64 8, ptr %4) #6
  %12 = load ptr, ptr %2, align 8
  %13 = getelementptr inbounds nuw %struct.BitmapAndState, ptr %12, i32 0, i32 1
  %14 = load ptr, ptr %13, align 8
  %15 = load i32, ptr %3, align 4
  %16 = sext i32 %15 to i64
  %17 = getelementptr inbounds ptr, ptr %14, i64 %16
  %18 = load ptr, ptr %17, align 8
  store ptr %18, ptr %4, align 8
  %19 = load ptr, ptr %2, align 8
  %20 = getelementptr inbounds nuw %struct.BitmapAndState, ptr %19, i32 0, i32 0
  %21 = getelementptr inbounds nuw %struct.PlanState, ptr %20, i32 0, i32 13
  %22 = load ptr, ptr %21, align 8
  %23 = icmp ne ptr %22, null
  br i1 %23, label %24, label %30

24:                                               ; preds = %11
  %25 = load ptr, ptr %4, align 8
  %26 = load ptr, ptr %2, align 8
  %27 = getelementptr inbounds nuw %struct.BitmapAndState, ptr %26, i32 0, i32 0
  %28 = getelementptr inbounds nuw %struct.PlanState, ptr %27, i32 0, i32 13
  %29 = load ptr, ptr %28, align 8
  call void @UpdateChangedParamSet(ptr noundef %25, ptr noundef %29)
  br label %30

30:                                               ; preds = %24, %11
  %31 = load ptr, ptr %4, align 8
  %32 = getelementptr inbounds nuw %struct.PlanState, ptr %31, i32 0, i32 13
  %33 = load ptr, ptr %32, align 8
  %34 = icmp eq ptr %33, null
  br i1 %34, label %35, label %37

35:                                               ; preds = %30
  %36 = load ptr, ptr %4, align 8
  call void @ExecReScan(ptr noundef %36)
  br label %37

37:                                               ; preds = %35, %30
  call void @llvm.lifetime.end.p0(i64 8, ptr %4) #6
  br label %38

38:                                               ; preds = %37
  %39 = load i32, ptr %3, align 4
  %40 = add i32 %39, 1
  store i32 %40, ptr %3, align 4
  br label %5, !llvm.loop !8

41:                                               ; preds = %5
  call void @llvm.lifetime.end.p0(i64 4, ptr %3) #6
  ret void
}