; Function Attrs: nounwind uwtable
define dso_local void @ExecReScanBitmapAnd(ptr noundef readonly captures(none) %0) local_unnamed_addr #0 {
  %2 = getelementptr inbounds nuw i8, ptr %0, i64 208
  %3 = load i32, ptr %2, align 8
  %4 = icmp sgt i32 %3, 0
  br i1 %4, label %.lr.ph, label %._crit_edge

.lr.ph:                                           ; preds = %1
  %5 = getelementptr inbounds nuw i8, ptr %0, i64 200
  %6 = getelementptr inbounds nuw i8, ptr %0, i64 104
  br label %7

7:                                                ; preds = %.lr.ph, %18
  %indvars.iv = phi i64 [ 0, %.lr.ph ], [ %indvars.iv.next, %18 ]
  %8 = load ptr, ptr %5, align 8
  %9 = getelementptr inbounds nuw ptr, ptr %8, i64 %indvars.iv
  %10 = load ptr, ptr %9, align 8
  %11 = load ptr, ptr %6, align 8
  %.not = icmp eq ptr %11, null
  br i1 %.not, label %13, label %12

12:                                               ; preds = %7
  tail call void @UpdateChangedParamSet(ptr noundef %10, ptr noundef nonnull %11) #5
  br label %13

13:                                               ; preds = %12, %7
  %14 = getelementptr inbounds nuw i8, ptr %10, i64 104
  %15 = load ptr, ptr %14, align 8
  %16 = icmp eq ptr %15, null
  br i1 %16, label %17, label %18

17:                                               ; preds = %13
  tail call void @ExecReScan(ptr noundef nonnull %10) #5
  br label %18

18:                                               ; preds = %17, %13
  %indvars.iv.next = add nuw nsw i64 %indvars.iv, 1
  %19 = load i32, ptr %2, align 8
  %20 = sext i32 %19 to i64
  %21 = icmp slt i64 %indvars.iv.next, %20
  br i1 %21, label %7, label %._crit_edge, !llvm.loop !7

._crit_edge:                                      ; preds = %18, %1
  ret void
}